; Function Attrs: mustprogress nounwind uwtable
define void @_ZN5osgeo4proj8metadata18PositionalAccuracyD2Ev(ptr noundef nonnull align 8 dereferenceable(24) %0) unnamed_addr #3 align 2 personality ptr @__gxx_personality_v0 {
  store ptr getelementptr inbounds inrange(-16, 16) ({ [4 x ptr] }, ptr @_ZTVN5osgeo4proj8metadata18PositionalAccuracyE, i64 0, i32 0, i64 2), ptr %0, align 8
  %2 = getelementptr inbounds i8, ptr %0, i64 16
  %3 = load ptr, ptr %2, align 8
  %.not.i = icmp eq ptr %3, null
  br i1 %.not.i, label %_ZNSt10unique_ptrIN5osgeo4proj8metadata18PositionalAccuracy7PrivateESt14default_deleteIS4_EED2Ev.exit, label %_ZNKSt14default_deleteIN5osgeo4proj8metadata18PositionalAccuracy7PrivateEEclEPS4_.exit.i

_ZNKSt14default_deleteIN5osgeo4proj8metadata18PositionalAccuracy7PrivateEEclEPS4_.exit.i: ; preds = %1
  tail call void @_ZNSt7__cxx1112basic_stringIcSt11char_traitsIcESaIcEED1Ev(ptr noundef nonnull align 8 dereferenceable(32) %3) #28
  tail call void @_ZdlPv(ptr noundef nonnull %3) #29
  br label %_ZNSt10unique_ptrIN5osgeo4proj8metadata18PositionalAccuracy7PrivateESt14default_deleteIS4_EED2Ev.exit

_ZNSt10unique_ptrIN5osgeo4proj8metadata18PositionalAccuracy7PrivateESt14default_deleteIS4_EED2Ev.exit: ; preds = %1, %_ZNKSt14default_deleteIN5osgeo4proj8metadata18PositionalAccuracy7PrivateEEclEPS4_.exit.i
  store ptr null, ptr %2, align 8
  tail call void @_ZN5osgeo4proj4util10BaseObjectD2Ev(ptr noundef nonnull align 8 dereferenceable(16) %0) #28
  ret void
}